target datalayout = "e-m:e-p270:32:32-p271:32:32-p272:64:64-i64:64-i128:128-f80:128-n8:16:32:64-S128"
target triple = "x86_64-pc-linux-gnu"

%struct.quic_conn_id_st = type { i8, [20 x i8] }
%union.bio_addr_st = type { %struct.sockaddr_in6, [84 x i8] }
%struct.sockaddr_in6 = type { i16, i16, i32, %struct.in6_addr, i32 }
%struct.in6_addr = type { %union.anon }
%union.anon = type { [4 x i32] }
%struct.OSSL_TIME = type { i64 }
%struct.quic_channel_st = type { ptr, %struct.anon, %struct.anon.0, ptr, ptr, ptr, ptr, ptr, ptr, ptr, i64, %union.bio_addr_st, ptr, ptr, ptr, %struct.quic_txfc_st, %struct.quic_rxfc_st, [3 x %struct.quic_rxfc_st], %struct.quic_rxfc_st, %struct.quic_rxfc_st, %struct.quic_stream_map_st, %struct.ossl_statm_st, ptr, ptr, ptr, ptr, ptr, ptr, ptr, ptr, [3 x ptr], [3 x ptr], %struct.quic_conn_id_st, %struct.quic_conn_id_st, %struct.quic_conn_id_st, %struct.quic_conn_id_st, %struct.quic_conn_id_st, %struct.quic_conn_id_st, i64, i64, i64, i64, i64, i64, i64, i64, i64, i64, i8, i16, ptr, i64, i64, i64, i64, i64, i64, i64, i64, i64, i64, i64, i64, i64, %struct.quic_terminate_cause_st, %struct.OSSL_TIME, %struct.OSSL_TIME, %struct.OSSL_TIME, %struct.OSSL_TIME, %struct.OSSL_TIME, i64, i64, i64, ptr, ptr, i64, ptr }
%struct.anon = type { ptr, ptr }
%struct.anon.0 = type { ptr, ptr }
%struct.quic_txfc_st = type { ptr, i64, i64, i8 }
%struct.quic_rxfc_st = type { i64, i64, i64, i64, i64, i64, i64, %struct.OSSL_TIME, ptr, ptr, ptr, i8, i8, i8, i8 }
%struct.quic_stream_map_st = type { ptr, %struct.quic_stream_list_node_st, %struct.quic_stream_list_node_st, %struct.quic_stream_list_node_st, i64, i64, i64, i64, i64, ptr, ptr, ptr, ptr, ptr, i32 }
%struct.quic_stream_list_node_st = type { ptr, ptr }
%struct.ossl_statm_st = type { %struct.OSSL_TIME, %struct.OSSL_TIME, %struct.OSSL_TIME, %struct.OSSL_TIME, i8 }
%struct.quic_terminate_cause_st = type { i64, i64, ptr, i64, i8 }
%struct.ossl_rtt_info_st = type { %struct.OSSL_TIME, %struct.OSSL_TIME, %struct.OSSL_TIME, %struct.OSSL_TIME }

; Function Attrs: nounwind uwtable
define ptr @ossl_quic_channel_get_statm(ptr noundef %0) #0 {
  %2 = alloca ptr, align 8
  store ptr %0, ptr %2, align 8, !tbaa !3
  %3 = load ptr, ptr %2, align 8, !tbaa !3
  %4 = getelementptr inbounds nuw %struct.quic_channel_st, ptr %3, i32 0, i32 21
  ret ptr %4
}

; Function Attrs: inlinehint nounwind uwtable
define internal i32 @ossl_quic_enc_level_to_pn_space(i32 noundef %0) #4 {
  %2 = alloca i32, align 4
  %3 = alloca i32, align 4
  store i32 %0, ptr %3, align 4, !tbaa !80
  %4 = load i32, ptr %3, align 4, !tbaa !80
  switch i32 %4, label %8 [
    i32 0, label %5
    i32 2, label %6
    i32 1, label %7
    i32 3, label %7
  ]

5:                                                ; preds = %1
  store i32 0, ptr %2, align 4
  br label %9

6:                                                ; preds = %1
  store i32 1, ptr %2, align 4
  br label %9

7:                                                ; preds = %1, %1
  store i32 2, ptr %2, align 4
  br label %9

8:                                                ; preds = %1
  store i32 2, ptr %2, align 4
  br label %9

9:                                                ; preds = %8, %7, %6, %5
  %10 = load i32, ptr %2, align 4
  ret i32 %10
}

; Function Attrs: nounwind uwtable
define internal i32 @ch_on_crypto_release_record(i64 noundef %0, ptr noundef %1) #0 {
  %3 = alloca i32, align 4
  %4 = alloca i64, align 8
  %5 = alloca ptr, align 8
  %6 = alloca ptr, align 8
  %7 = alloca ptr, align 8
  %8 = alloca %struct.ossl_rtt_info_st, align 8
  %9 = alloca i32, align 4
  %10 = alloca i32, align 4
  store i64 %0, ptr %4, align 8, !tbaa !47
  store ptr %1, ptr %5, align 8, !tbaa !172
  call void @llvm.lifetime.start.p0(i64 8, ptr %6) #9
  %11 = load ptr, ptr %5, align 8, !tbaa !172
  store ptr %11, ptr %6, align 8, !tbaa !3
  call void @llvm.lifetime.start.p0(i64 8, ptr %7) #9
  call void @llvm.lifetime.start.p0(i64 32, ptr %8) #9
  call void @llvm.lifetime.start.p0(i64 4, ptr %9) #9
  %12 = load ptr, ptr %6, align 8, !tbaa !3
  %13 = getelementptr inbounds nuw %struct.quic_channel_st, ptr %12, i32 0, i32 72
  %14 = load i64, ptr %13, align 8
  %15 = lshr i64 %14, 17
  %16 = and i64 %15, 7
  %17 = trunc i64 %16 to i32
  %18 = call i32 @ossl_quic_enc_level_to_pn_space(i32 noundef %17)
  store i32 %18, ptr %9, align 4, !tbaa !80
  %19 = load ptr, ptr %6, align 8, !tbaa !3
  %20 = getelementptr inbounds nuw %struct.quic_channel_st, ptr %19, i32 0, i32 31
  %21 = load i32, ptr %9, align 4, !tbaa !80
  %22 = zext i32 %21 to i64
  %23 = getelementptr inbounds nuw [3 x ptr], ptr %20, i64 0, i64 %22
  %24 = load ptr, ptr %23, align 8, !tbaa !120
  store ptr %24, ptr %7, align 8, !tbaa !120
  %25 = load ptr, ptr %7, align 8, !tbaa !120
  %26 = icmp eq ptr %25, null
  br i1 %26, label %27, label %28

27:                                               ; preds = %2
  store i32 0, ptr %3, align 4
  store i32 1, ptr %10, align 4
  br label %47

28:                                               ; preds = %2
  %29 = load ptr, ptr %6, align 8, !tbaa !3
  %30 = call ptr @ossl_quic_channel_get_statm(ptr noundef %29)
  call void @ossl_statm_get_rtt_info(ptr noundef %30, ptr noundef %8)
  %31 = load ptr, ptr %6, align 8, !tbaa !3
  %32 = getelementptr inbounds nuw %struct.quic_channel_st, ptr %31, i32 0, i32 17
  %33 = load i32, ptr %9, align 4, !tbaa !80
  %34 = zext i32 %33 to i64
  %35 = getelementptr inbounds nuw [3 x %struct.quic_rxfc_st], ptr %32, i64 0, i64 %34
  %36 = load i64, ptr %4, align 8, !tbaa !47
  %37 = getelementptr inbounds nuw %struct.ossl_rtt_info_st, ptr %8, i32 0, i32 0
  %38 = getelementptr inbounds nuw %struct.OSSL_TIME, ptr %37, i32 0, i32 0
  %39 = load i64, ptr %38, align 8
  %40 = call i32 @ossl_quic_rxfc_on_retire(ptr noundef %35, i64 noundef %36, i64 %39)
  %41 = icmp ne i32 %40, 0
  br i1 %41, label %43, label %42

42:                                               ; preds = %28
  store i32 0, ptr %3, align 4
  store i32 1, ptr %10, align 4
  br label %47

43:                                               ; preds = %28
  %44 = load ptr, ptr %7, align 8, !tbaa !120
  %45 = load i64, ptr %4, align 8, !tbaa !47
  %46 = call i32 @ossl_quic_rstream_release_record(ptr noundef %44, i64 noundef %45)
  store i32 %46, ptr %3, align 4
  store i32 1, ptr %10, align 4
  br label %47

47:                                               ; preds = %43, %42, %27
  call void @llvm.lifetime.end.p0(i64 4, ptr %9) #9
  call void @llvm.lifetime.end.p0(i64 32, ptr %8) #9
  call void @llvm.lifetime.end.p0(i64 8, ptr %7) #9
  call void @llvm.lifetime.end.p0(i64 8, ptr %6) #9
  %48 = load i32, ptr %3, align 4
  ret i32 %48
}