; Function Attrs: nounwind uwtable
define internal i32 @ch_on_crypto_release_record(i64 noundef %0, ptr noundef %1) #0 {
  %3 = alloca %struct.ossl_rtt_info_st, align 8
  call void @llvm.lifetime.start.p0(i64 32, ptr nonnull %3) #15
  %4 = getelementptr inbounds nuw i8, ptr %1, i64 1568
  %5 = load i64, ptr %4, align 8
  %6 = trunc i64 %5 to i32
  %7 = lshr i32 %6, 17
  %8 = and i32 %7, 7
  %switch.selectcmp.i = icmp eq i32 %8, 2
  %switch.select.i = select i1 %switch.selectcmp.i, i64 1, i64 2
  %switch.selectcmp2.i = icmp eq i32 %8, 0
  %switch.select3.i = select i1 %switch.selectcmp2.i, i64 0, i64 %switch.select.i
  %9 = getelementptr inbounds nuw i8, ptr %1, i64 1120
  %10 = getelementptr inbounds nuw [3 x ptr], ptr %9, i64 0, i64 %switch.select3.i
  %11 = load ptr, ptr %10, align 8, !tbaa !118
  %12 = icmp eq ptr %11, null
  br i1 %12, label %21, label %13

13:                                               ; preds = %2
  %14 = getelementptr inbounds nuw i8, ptr %1, i64 992
  call void @ossl_statm_get_rtt_info(ptr noundef nonnull %14, ptr noundef nonnull %3) #15
  %15 = getelementptr inbounds nuw i8, ptr %1, i64 368
  %16 = getelementptr inbounds nuw [3 x %struct.quic_rxfc_st], ptr %15, i64 0, i64 %switch.select3.i
  %17 = load i64, ptr %3, align 8
  %18 = call i32 @ossl_quic_rxfc_on_retire(ptr noundef nonnull %16, i64 noundef %0, i64 %17) #15
  %.not = icmp eq i32 %18, 0
  br i1 %.not, label %21, label %19

19:                                               ; preds = %13
  %20 = call i32 @ossl_quic_rstream_release_record(ptr noundef nonnull %11, i64 noundef %0) #15
  br label %21

21:                                               ; preds = %13, %2, %19
  %.0 = phi i32 [ %20, %19 ], [ 0, %2 ], [ 0, %13 ]
  call void @llvm.lifetime.end.p0(i64 32, ptr nonnull %3) #15
  ret i32 %.0
}